target datalayout = "e-m:e-p270:32:32-p271:32:32-p272:64:64-i64:64-i128:128-f80:128-n8:16:32:64-S128"
target triple = "x86_64-pc-linux-gnu"

%"class.std::vector" = type { %"struct.std::_Vector_base" }
%"struct.std::_Vector_base" = type { %"struct.std::_Vector_base<std::__cxx11::basic_string<char>, std::allocator<std::__cxx11::basic_string<char>>>::_Vector_impl" }
%"struct.std::_Vector_base<std::__cxx11::basic_string<char>, std::allocator<std::__cxx11::basic_string<char>>>::_Vector_impl" = type { %"struct.std::_Vector_base<std::__cxx11::basic_string<char>, std::allocator<std::__cxx11::basic_string<char>>>::_Vector_impl_data" }
%"struct.std::_Vector_base<std::__cxx11::basic_string<char>, std::allocator<std::__cxx11::basic_string<char>>>::_Vector_impl_data" = type { ptr, ptr, ptr }
%"class.std::__cxx11::basic_string" = type { %"struct.std::__cxx11::basic_string<char>::_Alloc_hider", i64, %union.anon }
%"struct.std::__cxx11::basic_string<char>::_Alloc_hider" = type { ptr }
%union.anon = type { i64, [8 x i8] }
%"struct.std::_Rb_tree_header" = type { %"struct.std::_Rb_tree_node_base", i64 }
%"struct.std::_Rb_tree_node_base" = type { i32, ptr, ptr, ptr }
%"class.casadi::Ipqp" = type { %"class.casadi::Conic", %"struct.casadi::casadi_ipqp_prob", %"class.casadi::Sparsity", %"class.casadi::Linsol", i8, i8, i8, %"class.std::__cxx11::basic_string", %"class.std::map.28" }
%"class.casadi::Conic" = type { %"class.casadi::FunctionInternal", %"class.casadi::PluginInterface", %"struct.casadi::casadi_qp_prob", %"class.std::vector.19", %"class.std::vector.19", i8, %"class.casadi::Sparsity", %"class.casadi::Sparsity", %"class.casadi::Sparsity", %"class.casadi::Sparsity", i64, i64, i64 }
%"class.casadi::FunctionInternal" = type { %"class.casadi::ProtoFunction", i8, i8, i64, i64, %"class.std::vector.19", %"class.std::vector.19", %"class.std::vector.23", %"class.std::vector.23", %"class.std::vector", %"class.std::vector", i8, i8, %"class.std::__cxx11::basic_string", %"class.std::__cxx11::basic_string", %"class.std::__cxx11::basic_string", i8, ptr, ptr, ptr, %"class.std::map.28", i8, %"class.std::map.28", %"class.casadi::WeakCache", [2 x %"class.std::vector.23"], %"class.casadi::Function", ptr, %"class.std::__cxx11::basic_string", %"class.casadi::Importer", %"class.std::map.28", double, i8, i8, i8, i8, i8, i8, i8, i8, double, double, i64, i8, %"class.std::map.28", double, %"class.std::__cxx11::basic_string", i8, i8, i64, i8, i8, i8, %"class.std::__cxx11::basic_string", %"class.std::__cxx11::basic_string", %"class.std::map.28", %"class.std::map.28", %"class.std::map.28", %"class.std::map.28", %"class.casadi::Function", i64, i64, i64, i64, i64, i64, i64, i64, i64 }
%"class.casadi::ProtoFunction" = type { %"class.casadi::SharedObjectInternal", %"class.std::__cxx11::basic_string", i8, i8, i8, i8, i8, %"class.std::vector.11", %"class.std::stack" }
%"class.casadi::SharedObjectInternal" = type { %"class.casadi::GenericSharedInternal", i64 }
%"class.casadi::GenericSharedInternal" = type { ptr, ptr }
%"class.std::vector.11" = type { %"struct.std::_Vector_base.12" }
%"struct.std::_Vector_base.12" = type { %"struct.std::_Vector_base<void *, std::allocator<void *>>::_Vector_impl" }
%"struct.std::_Vector_base<void *, std::allocator<void *>>::_Vector_impl" = type { %"struct.std::_Vector_base<void *, std::allocator<void *>>::_Vector_impl_data" }
%"struct.std::_Vector_base<void *, std::allocator<void *>>::_Vector_impl_data" = type { ptr, ptr, ptr }
%"class.std::stack" = type { %"class.std::deque" }
%"class.std::deque" = type { %"class.std::_Deque_base" }
%"class.std::_Deque_base" = type { %"struct.std::_Deque_base<int, std::allocator<int>>::_Deque_impl" }
%"struct.std::_Deque_base<int, std::allocator<int>>::_Deque_impl" = type { %"struct.std::_Deque_base<int, std::allocator<int>>::_Deque_impl_data" }
%"struct.std::_Deque_base<int, std::allocator<int>>::_Deque_impl_data" = type { ptr, i64, %"struct.std::_Deque_iterator", %"struct.std::_Deque_iterator" }
%"struct.std::_Deque_iterator" = type { ptr, ptr, ptr, ptr }
%"class.std::vector.23" = type { %"struct.std::_Vector_base.24" }
%"struct.std::_Vector_base.24" = type { %"struct.std::_Vector_base<casadi::Sparsity, std::allocator<casadi::Sparsity>>::_Vector_impl" }
%"struct.std::_Vector_base<casadi::Sparsity, std::allocator<casadi::Sparsity>>::_Vector_impl" = type { %"struct.std::_Vector_base<casadi::Sparsity, std::allocator<casadi::Sparsity>>::_Vector_impl_data" }
%"struct.std::_Vector_base<casadi::Sparsity, std::allocator<casadi::Sparsity>>::_Vector_impl_data" = type { ptr, ptr, ptr }
%"class.casadi::WeakCache" = type { %"class.std::unordered_map" }
%"class.std::unordered_map" = type { %"class.std::_Hashtable" }
%"class.std::_Hashtable" = type { ptr, i64, %"struct.std::__detail::_Hash_node_base", i64, %"struct.std::__detail::_Prime_rehash_policy", ptr }
%"struct.std::__detail::_Hash_node_base" = type { ptr }
%"struct.std::__detail::_Prime_rehash_policy" = type { float, i64 }
%"class.casadi::Importer" = type { %"class.casadi::SharedObject" }
%"class.casadi::SharedObject" = type { %"class.casadi::GenericShared" }
%"class.casadi::GenericShared" = type { ptr }
%"class.casadi::Function" = type { %"class.casadi::SharedObject" }
%"class.casadi::PluginInterface" = type { ptr }
%"struct.casadi::casadi_qp_prob" = type { ptr, ptr, i64, i64, i64, i64, i64 }
%"class.std::vector.19" = type { %"struct.std::_Bvector_base" }
%"struct.std::_Bvector_base" = type { %"struct.std::_Bvector_base<std::allocator<bool>>::_Bvector_impl" }
%"struct.std::_Bvector_base<std::allocator<bool>>::_Bvector_impl" = type { %"struct.std::_Bvector_base<std::allocator<bool>>::_Bvector_impl_data" }
%"struct.std::_Bvector_base<std::allocator<bool>>::_Bvector_impl_data" = type { %"struct.std::_Bit_iterator", %"struct.std::_Bit_iterator", ptr }
%"struct.std::_Bit_iterator" = type { %"struct.std::_Bit_iterator_base.base", [4 x i8] }
%"struct.std::_Bit_iterator_base.base" = type <{ ptr, i32 }>
%"struct.casadi::casadi_ipqp_prob" = type { i64, i64, i64, double, double, i64, double, double, double, double }
%"class.casadi::Sparsity" = type { %"class.casadi::SharedObject" }
%"class.casadi::Linsol" = type { %"class.casadi::SharedObject" }
%"class.std::map.28" = type { %"class.std::_Rb_tree.29" }
%"class.std::_Rb_tree.29" = type { %"struct.std::_Rb_tree<std::__cxx11::basic_string<char>, std::pair<const std::__cxx11::basic_string<char>, casadi::GenericType>, std::_Select1st<std::pair<const std::__cxx11::basic_string<char>, casadi::GenericType>>, std::less<std::__cxx11::basic_string<char>>>::_Rb_tree_impl" }
%"struct.std::_Rb_tree<std::__cxx11::basic_string<char>, std::pair<const std::__cxx11::basic_string<char>, casadi::GenericType>, std::_Select1st<std::pair<const std::__cxx11::basic_string<char>, casadi::GenericType>>, std::less<std::__cxx11::basic_string<char>>>::_Rb_tree_impl" = type { [8 x i8], %"struct.std::_Rb_tree_header" }

; Function Attrs: mustprogress nounwind uwtable
define linkonce_odr hidden noundef double @_ZNSt14numeric_limitsIdE8infinityEv() #5 comdat align 2 {
  ret double 0x7FF0000000000000
}

; Function Attrs: mustprogress nounwind uwtable
define linkonce_odr hidden noundef double @_ZNSt14numeric_limitsIdE3minEv() #5 comdat align 2 {
  ret double 0x10000000000000
}

; Function Attrs: mustprogress nounwind uwtable
define linkonce_odr hidden void @_ZN6casadi17casadi_ipqp_setupIdEEvPNS_16casadi_ipqp_probIT_EExx(ptr noundef %0, i64 noundef %1, i64 noundef %2) #5 comdat {
  %4 = alloca ptr, align 8
  %5 = alloca i64, align 8
  %6 = alloca i64, align 8
  store ptr %0, ptr %4, align 8, !tbaa !179
  store i64 %1, ptr %5, align 8, !tbaa !48
  store i64 %2, ptr %6, align 8, !tbaa !48
  %7 = load i64, ptr %5, align 8, !tbaa !48
  %8 = load ptr, ptr %4, align 8, !tbaa !179
  %9 = getelementptr inbounds nuw %"struct.casadi::casadi_ipqp_prob", ptr %8, i32 0, i32 0
  store i64 %7, ptr %9, align 8, !tbaa !184
  %10 = load i64, ptr %6, align 8, !tbaa !48
  %11 = load ptr, ptr %4, align 8, !tbaa !179
  %12 = getelementptr inbounds nuw %"struct.casadi::casadi_ipqp_prob", ptr %11, i32 0, i32 1
  store i64 %10, ptr %12, align 8, !tbaa !185
  %13 = load i64, ptr %5, align 8, !tbaa !48
  %14 = load i64, ptr %6, align 8, !tbaa !48
  %15 = add nsw i64 %13, %14
  %16 = load ptr, ptr %4, align 8, !tbaa !179
  %17 = getelementptr inbounds nuw %"struct.casadi::casadi_ipqp_prob", ptr %16, i32 0, i32 2
  store i64 %15, ptr %17, align 8, !tbaa !181
  %18 = call noundef double @_ZNSt14numeric_limitsIdE3minEv() #3
  %19 = load ptr, ptr %4, align 8, !tbaa !179
  %20 = getelementptr inbounds nuw %"struct.casadi::casadi_ipqp_prob", ptr %19, i32 0, i32 3
  store double %18, ptr %20, align 8, !tbaa !186
  %21 = call noundef double @_ZNSt14numeric_limitsIdE8infinityEv() #3
  %22 = load ptr, ptr %4, align 8, !tbaa !179
  %23 = getelementptr inbounds nuw %"struct.casadi::casadi_ipqp_prob", ptr %22, i32 0, i32 4
  store double %21, ptr %23, align 8, !tbaa !187
  %24 = load ptr, ptr %4, align 8, !tbaa !179
  %25 = getelementptr inbounds nuw %"struct.casadi::casadi_ipqp_prob", ptr %24, i32 0, i32 5
  store i64 100, ptr %25, align 8, !tbaa !188
  %26 = load ptr, ptr %4, align 8, !tbaa !179
  %27 = getelementptr inbounds nuw %"struct.casadi::casadi_ipqp_prob", ptr %26, i32 0, i32 6
  store double 1.000000e-08, ptr %27, align 8, !tbaa !189
  %28 = load ptr, ptr %4, align 8, !tbaa !179
  %29 = getelementptr inbounds nuw %"struct.casadi::casadi_ipqp_prob", ptr %28, i32 0, i32 7
  store double 1.000000e-08, ptr %29, align 8, !tbaa !190
  %30 = load ptr, ptr %4, align 8, !tbaa !179
  %31 = getelementptr inbounds nuw %"struct.casadi::casadi_ipqp_prob", ptr %30, i32 0, i32 8
  store double 1.000000e-08, ptr %31, align 8, !tbaa !191
  %32 = load ptr, ptr %4, align 8, !tbaa !179
  %33 = getelementptr inbounds nuw %"struct.casadi::casadi_ipqp_prob", ptr %32, i32 0, i32 9
  store double 1.000000e-08, ptr %33, align 8, !tbaa !192
  ret void
}

; Function Attrs: mustprogress uwtable
define void @_ZN6casadi4Ipqp11set_qp_probEv(ptr noundef nonnull align 8 dereferenceable(1704) %0) #6 align 2 {
  %2 = alloca ptr, align 8
  store ptr %0, ptr %2, align 8, !tbaa !58
  %3 = load ptr, ptr %2, align 8
  %4 = getelementptr inbounds nuw %"class.casadi::Ipqp", ptr %3, i32 0, i32 1
  %5 = getelementptr inbounds nuw %"class.casadi::Conic", ptr %3, i32 0, i32 10
  %6 = load i64, ptr %5, align 8, !tbaa !168
  %7 = getelementptr inbounds nuw %"class.casadi::Conic", ptr %3, i32 0, i32 11
  %8 = load i64, ptr %7, align 8, !tbaa !169
  call void @_ZN6casadi17casadi_ipqp_setupIdEEvPNS_16casadi_ipqp_probIT_EExx(ptr noundef %4, i64 noundef %6, i64 noundef %8)
  ret void
}