; Function Attrs: mustprogress nofree norecurse nosync nounwind willreturn memory(argmem: readwrite) uwtable
define void @_ZN6casadi4Ipqp11set_qp_probEv(ptr noundef nonnull align 8 captures(none) dereferenceable(1704) initializes((1520, 1600)) %0) local_unnamed_addr #11 align 2 {
  %2 = getelementptr inbounds nuw i8, ptr %0, i64 1520
  %3 = getelementptr inbounds nuw i8, ptr %0, i64 1496
  %4 = load i64, ptr %3, align 8, !tbaa !57
  %5 = getelementptr inbounds nuw i8, ptr %0, i64 1504
  %6 = load i64, ptr %5, align 8, !tbaa !115
  store i64 %4, ptr %2, align 8, !tbaa !116
  %7 = getelementptr inbounds nuw i8, ptr %0, i64 1528
  store i64 %6, ptr %7, align 8, !tbaa !118
  %8 = add nsw i64 %6, %4
  %9 = getelementptr inbounds nuw i8, ptr %0, i64 1536
  store i64 %8, ptr %9, align 8, !tbaa !119
  %10 = getelementptr inbounds nuw i8, ptr %0, i64 1544
  store double 0x10000000000000, ptr %10, align 8, !tbaa !120
  %11 = getelementptr inbounds nuw i8, ptr %0, i64 1552
  store double 0x7FF0000000000000, ptr %11, align 8, !tbaa !121
  %12 = getelementptr inbounds nuw i8, ptr %0, i64 1560
  store i64 100, ptr %12, align 8, !tbaa !122
  %13 = getelementptr inbounds nuw i8, ptr %0, i64 1568
  store double 1.000000e-08, ptr %13, align 8, !tbaa !123
  %14 = getelementptr inbounds nuw i8, ptr %0, i64 1576
  store double 1.000000e-08, ptr %14, align 8, !tbaa !124
  %15 = getelementptr inbounds nuw i8, ptr %0, i64 1584
  store double 1.000000e-08, ptr %15, align 8, !tbaa !125
  %16 = getelementptr inbounds nuw i8, ptr %0, i64 1592
  store double 1.000000e-08, ptr %16, align 8, !tbaa !126
  ret void
}